Certificate:
    Data:
        Version: 3 (0x2)
        Serial Number: 4 (0x4)
    Signature Algorithm: sha1WithRSAEncryption
        Issuer: C=NO, O=Green AS, OU=Green Certificate Authority, CN=Green TLS CA
        Validity
            Not Before: Jul 26 12:47:08 2017 GMT
            Not After : Jul 26 12:47:08 2019 GMT
        Subject: C=NO, O=Green AS, OU=Green Certificate Authority, CN=Green TLS CA
        Subject Public Key Info:
            Public Key Algorithm: rsaEncryption
                Public-Key: (2048 bit)
                Modulus:
                    00:97:43:c5:f6:24:b8:ce:30:12:70:ea:17:9c:c0:
                    ce:f2:ef:58:8b:12:7d:46:5e:01:f1:1a:93:b2:3e:
                    d8:cf:99:bc:10:32:f1:12:b0:ef:00:6c:d6:c4:45:
                    85:a8:33:7b:cd:ec:8f:4a:92:d0:5a:4a:41:69:7f:
                    e3:dd:7e:71:d2:21:9c:df:43:b5:6c:60:bb:2a:12:
                    a8:08:cf:c5:ee:08:7d:48:ea:4b:54:e4:82:d9:88:
                    b0:b8:5e:02:12:cb:0e:09:99:b7:5f:42:b6:d7:26:
                    34:0f:4a:e7:fc:ac:9c:59:cd:a1:50:4c:88:5f:f1:
                    d2:7e:5b:21:41:f0:37:50:80:48:71:50:26:61:26:
                    79:64:4b:7e:91:8d:0e:f4:27:fe:19:80:bf:39:55:
                    b7:f3:d0:cd:61:6c:d8:c1:c7:d3:26:77:92:1a:14:
                    42:56:cb:bc:fd:1a:4a:eb:17:d8:8d:af:d1:c0:46:
                    9f:f0:40:5e:0e:34:2f:e7:db:be:66:fd:89:0b:6b:
                    8c:71:c1:0b:0a:c5:c4:c4:eb:7f:44:c1:75:36:23:
                    fd:ed:b6:ee:87:d9:88:47:e1:4b:7c:60:53:e7:85:
                    1c:2f:82:4b:2b:5e:63:1a:49:17:36:2c:fc:39:23:
                    49:22:4d:43:b5:51:22:12:24:9e:31:44:d8:16:4e:
                    a8:eb
                Exponent: 65537 (0x10001)
        X509v3 extensions:
            X509v3 Key Usage: critical
                Digital Signature, Key Encipherment
            X509v3 Basic Constraints: 
                CA:FALSE
            X509v3 Extended Key Usage: 
                TLS Web Server Authentication, TLS Web Client Authentication
            X509v3 Subject Key Identifier: 
                70:A9:FB:44:66:3C:63:96:E6:05:B2:74:47:C8:18:7E:43:6D:EE:8B
            X509v3 Authority Key Identifier: 
                keyid:AE:42:88:75:DD:05:A6:8E:48:7F:50:69:F9:B7:34:23:49:B8:B4:71

            Authority Information Access: 
                CA Issuers - URI:http://green.no/ca/tls-ca.cer

            X509v3 CRL Distribution Points: 

                Full Name:
                  URI:http://green.no/ca/tls-ca.crl

            X509v3 Subject Alternative Name: 
                IP Address:127.0.0.1, IP Address:127.0.0.0, DNS:localhost
    Signature Algorithm: sha1WithRSAEncryption
         56:1e:b8:52:ba:f5:72:42:ad:15:71:c1:5e:00:63:c9:4d:56:
         f2:8d:a3:a9:91:db:d0:b5:1b:88:80:93:80:28:48:b2:d0:a9:
         d0:ea:de:40:78:cc:57:8c:00:b8:65:99:68:95:98:9b:fb:a2:
         43:21:ea:00:37:01:77:c7:3b:1a:ec:58:2d:25:9c:ad:23:41:
         5e:ae:fd:ac:2f:26:81:b8:a7:49:9b:5a:10:fe:ad:c3:86:ab:
         59:67:b0:c7:81:72:95:60:b5:cb:fc:9f:ad:27:16:50:85:76:
         33:16:20:2c:1f:c6:14:09:0c:48:9f:c0:19:16:c9:fa:b0:d8:
         bf:b7:8d:a7:aa:eb:fe:f8:6f:dd:2b:83:ee:c7:8a:df:c8:59:
         e6:2e:13:1f:57:cc:6f:31:db:f7:b7:5c:3f:78:ad:22:2c:48:
         bb:6d:c4:ab:dc:c1:76:34:29:d9:1e:67:e0:ac:37:2b:90:f9:
         71:bd:cf:a1:01:b9:eb:0b:0b:79:2e:8b:52:3d:8e:13:97:c8:
         05:a3:ef:68:82:49:12:2a:25:1a:48:49:b8:7c:3c:66:0d:74:
         f9:00:8c:5b:57:d7:76:b1:26:95:86:b2:2e:a3:b2:9c:e0:eb:
         2d:fc:77:03:8f:cd:56:46:3a:c9:6a:fa:72:e3:19:d8:ef:de:
         4b:36:95:79
-----BEGIN CERTIFICATE-----
MIIEQjCCAyqgAwIBAgIBBDANBgkqhkiG9w0BAQUFADBdMQswCQYDVQQGEwJOTzER
MA8GA1UECgwIR3JlZW4gQVMxJDAiBgNVBAsMG0dyZWVuIENlcnRpZmljYXRlIEF1
dGhvcml0eTEVMBMGA1UEAwwMR3JlZW4gVExTIENBMB4XDTE3MDcyNjEyNDcwOFoX
DTE5MDcyNjEyNDcwOFowXTELMAkGA1UEBhMCTk8xETAPBgNVBAoMCEdyZWVuIEFT
MSQwIgYDVQQLDBtHcmVlbiBDZXJ0aWZpY2F0ZSBBdXRob3JpdHkxFTATBgNVBAMM
DEdyZWVuIFRMUyBDQTCCASIwDQYJKoZIhvcNAQEBBQADggEPADCCAQoCggEBAJdD
xfYkuM4wEnDqF5zAzvLvWIsSfUZeAfEak7I+2M+ZvBAy8RKw7wBs1sRFhagze83s
j0qS0FpKQWl/491+cdIhnN9DtWxguyoSqAjPxe4IfUjqS1TkgtmIsLheAhLLDgmZ
t19CttcmNA9K5/ysnFnNoVBMiF/x0n5bIUHwN1CASHFQJmEmeWRLfpGNDvQn/hmA
vzlVt/PQzWFs2MHH0yZ3khoUQlbLvP0aSusX2I2v0cBGn/BAXg40L+fbvmb9iQtr
jHHBCwrFxMTrf0TBdTYj/e227ofZiEfhS3xgU+eFHC+CSyteYxpJFzYs/DkjSSJN
Q7VRIhIknjFE2BZOqOsCAwEAAaOCAQswggEHMA4GA1UdDwEB/wQEAwIFoDAJBgNV
HRMEAjAAMB0GA1UdJQQWMBQGCCsGAQUFBwMBBggrBgEFBQcDAjAdBgNVHQ4EFgQU
cKn7RGY8Y5bmBbJ0R8gYfkNt7oswHwYDVR0jBBgwFoAUrkKIdd0Fpo5If1Bp+bc0
I0m4tHEwOQYIKwYBBQUHAQEELTArMCkGCCsGAQUFBzAChh1odHRwOi8vZ3JlZW4u
bm8vY2EvdGxzLWNhLmNlcjAuBgNVHR8EJzAlMCOgIaAfhh1odHRwOi8vZ3JlZW4u
bm8vY2EvdGxzLWNhLmNybDAgBgNVHREEGTAXhwR/AAABhwR/AAAAgglsb2NhbGhv
c3QwDQYJKoZIhvcNAQEFBQADggEBAFYeuFK69XJCrRVxwV4AY8lNVvKNo6mR29C1
G4iAk4AoSLLQqdDq3kB4zFeMALhlmWiVmJv7okMh6gA3AXfHOxrsWC0lnK0jQV6u
/awvJoG4p0mbWhD+rcOGq1lnsMeBcpVgtcv8n60nFlCFdjMWICwfxhQJDEifwBkW
yfqw2L+3jaeq6/74b90rg+7Hit/IWeYuEx9XzG8x2/e3XD94rSIsSLttxKvcwXY0
KdkeZ+CsNyuQ+XG9z6EBuesLC3kui1I9jhOXyAWj72iCSRIqJRpISbh8PGYNdPkA
jFtX13axJpWGsi6jspzg6y38dwOPzVZGOslq+nLjGdjv3ks2lXk=
-----END CERTIFICATE-----
